
gauntlet:     file format elf64-x86-64


Disassembly of section .init:

00000000004006f0 <_init>:
  4006f0:	48 83 ec 08          	sub    $0x8,%rsp
  4006f4:	48 8b 05 fd 08 20 00 	mov    0x2008fd(%rip),%rax        # 600ff8 <__gmon_start__>
  4006fb:	48 85 c0             	test   %rax,%rax
  4006fe:	74 02                	je     400702 <_init+0x12>
  400700:	ff d0                	callq  *%rax
  400702:	48 83 c4 08          	add    $0x8,%rsp
  400706:	c3                   	retq   

Disassembly of section .plt:

0000000000400710 <.plt>:
  400710:	ff 35 f2 08 20 00    	pushq  0x2008f2(%rip)        # 601008 <_GLOBAL_OFFSET_TABLE_+0x8>
  400716:	ff 25 f4 08 20 00    	jmpq   *0x2008f4(%rip)        # 601010 <_GLOBAL_OFFSET_TABLE_+0x10>
  40071c:	0f 1f 40 00          	nopl   0x0(%rax)

0000000000400720 <strcpy@plt>:
  400720:	ff 25 f2 08 20 00    	jmpq   *0x2008f2(%rip)        # 601018 <strcpy@GLIBC_2.2.5>
  400726:	68 00 00 00 00       	pushq  $0x0
  40072b:	e9 e0 ff ff ff       	jmpq   400710 <.plt>

0000000000400730 <puts@plt>:
  400730:	ff 25 ea 08 20 00    	jmpq   *0x2008ea(%rip)        # 601020 <puts@GLIBC_2.2.5>
  400736:	68 01 00 00 00       	pushq  $0x1
  40073b:	e9 d0 ff ff ff       	jmpq   400710 <.plt>

0000000000400740 <setresgid@plt>:
  400740:	ff 25 e2 08 20 00    	jmpq   *0x2008e2(%rip)        # 601028 <setresgid@GLIBC_2.2.5>
  400746:	68 02 00 00 00       	pushq  $0x2
  40074b:	e9 c0 ff ff ff       	jmpq   400710 <.plt>

0000000000400750 <printf@plt>:
  400750:	ff 25 da 08 20 00    	jmpq   *0x2008da(%rip)        # 601030 <printf@GLIBC_2.2.5>
  400756:	68 03 00 00 00       	pushq  $0x3
  40075b:	e9 b0 ff ff ff       	jmpq   400710 <.plt>

0000000000400760 <fgets@plt>:
  400760:	ff 25 d2 08 20 00    	jmpq   *0x2008d2(%rip)        # 601038 <fgets@GLIBC_2.2.5>
  400766:	68 04 00 00 00       	pushq  $0x4
  40076b:	e9 a0 ff ff ff       	jmpq   400710 <.plt>

0000000000400770 <signal@plt>:
  400770:	ff 25 ca 08 20 00    	jmpq   *0x2008ca(%rip)        # 601040 <signal@GLIBC_2.2.5>
  400776:	68 05 00 00 00       	pushq  $0x5
  40077b:	e9 90 ff ff ff       	jmpq   400710 <.plt>

0000000000400780 <fprintf@plt>:
  400780:	ff 25 c2 08 20 00    	jmpq   *0x2008c2(%rip)        # 601048 <fprintf@GLIBC_2.2.5>
  400786:	68 06 00 00 00       	pushq  $0x6
  40078b:	e9 80 ff ff ff       	jmpq   400710 <.plt>

0000000000400790 <malloc@plt>:
  400790:	ff 25 ba 08 20 00    	jmpq   *0x2008ba(%rip)        # 601050 <malloc@GLIBC_2.2.5>
  400796:	68 07 00 00 00       	pushq  $0x7
  40079b:	e9 70 ff ff ff       	jmpq   400710 <.plt>

00000000004007a0 <fflush@plt>:
  4007a0:	ff 25 b2 08 20 00    	jmpq   *0x2008b2(%rip)        # 601058 <fflush@GLIBC_2.2.5>
  4007a6:	68 08 00 00 00       	pushq  $0x8
  4007ab:	e9 60 ff ff ff       	jmpq   400710 <.plt>

00000000004007b0 <getegid@plt>:
  4007b0:	ff 25 aa 08 20 00    	jmpq   *0x2008aa(%rip)        # 601060 <getegid@GLIBC_2.2.5>
  4007b6:	68 09 00 00 00       	pushq  $0x9
  4007bb:	e9 50 ff ff ff       	jmpq   400710 <.plt>

00000000004007c0 <fopen@plt>:
  4007c0:	ff 25 a2 08 20 00    	jmpq   *0x2008a2(%rip)        # 601068 <fopen@GLIBC_2.2.5>
  4007c6:	68 0a 00 00 00       	pushq  $0xa
  4007cb:	e9 40 ff ff ff       	jmpq   400710 <.plt>

00000000004007d0 <exit@plt>:
  4007d0:	ff 25 9a 08 20 00    	jmpq   *0x20089a(%rip)        # 601070 <exit@GLIBC_2.2.5>
  4007d6:	68 0b 00 00 00       	pushq  $0xb
  4007db:	e9 30 ff ff ff       	jmpq   400710 <.plt>

Disassembly of section .text:

00000000004007e0 <_start>:
  4007e0:	31 ed                	xor    %ebp,%ebp
  4007e2:	49 89 d1             	mov    %rdx,%r9
  4007e5:	5e                   	pop    %rsi
  4007e6:	48 89 e2             	mov    %rsp,%rdx
  4007e9:	48 83 e4 f0          	and    $0xfffffffffffffff0,%rsp
  4007ed:	50                   	push   %rax
  4007ee:	54                   	push   %rsp
  4007ef:	49 c7 c0 b0 0a 40 00 	mov    $0x400ab0,%r8
  4007f6:	48 c7 c1 40 0a 40 00 	mov    $0x400a40,%rcx
  4007fd:	48 c7 c7 0d 09 40 00 	mov    $0x40090d,%rdi
  400804:	ff 15 e6 07 20 00    	callq  *0x2007e6(%rip)        # 600ff0 <__libc_start_main@GLIBC_2.2.5>
  40080a:	f4                   	hlt    
  40080b:	0f 1f 44 00 00       	nopl   0x0(%rax,%rax,1)

0000000000400810 <_dl_relocate_static_pie>:
  400810:	f3 c3                	repz retq 
  400812:	66 2e 0f 1f 84 00 00 	nopw   %cs:0x0(%rax,%rax,1)
  400819:	00 00 00 
  40081c:	0f 1f 40 00          	nopl   0x0(%rax)

0000000000400820 <deregister_tm_clones>:
  400820:	55                   	push   %rbp
  400821:	b8 88 10 60 00       	mov    $0x601088,%eax
  400826:	48 3d 88 10 60 00    	cmp    $0x601088,%rax
  40082c:	48 89 e5             	mov    %rsp,%rbp
  40082f:	74 17                	je     400848 <deregister_tm_clones+0x28>
  400831:	b8 00 00 00 00       	mov    $0x0,%eax
  400836:	48 85 c0             	test   %rax,%rax
  400839:	74 0d                	je     400848 <deregister_tm_clones+0x28>
  40083b:	5d                   	pop    %rbp
  40083c:	bf 88 10 60 00       	mov    $0x601088,%edi
  400841:	ff e0                	jmpq   *%rax
  400843:	0f 1f 44 00 00       	nopl   0x0(%rax,%rax,1)
  400848:	5d                   	pop    %rbp
  400849:	c3                   	retq   
  40084a:	66 0f 1f 44 00 00    	nopw   0x0(%rax,%rax,1)

0000000000400850 <register_tm_clones>:
  400850:	be 88 10 60 00       	mov    $0x601088,%esi
  400855:	55                   	push   %rbp
  400856:	48 81 ee 88 10 60 00 	sub    $0x601088,%rsi
  40085d:	48 89 e5             	mov    %rsp,%rbp
  400860:	48 c1 fe 03          	sar    $0x3,%rsi
  400864:	48 89 f0             	mov    %rsi,%rax
  400867:	48 c1 e8 3f          	shr    $0x3f,%rax
  40086b:	48 01 c6             	add    %rax,%rsi
  40086e:	48 d1 fe             	sar    %rsi
  400871:	74 15                	je     400888 <register_tm_clones+0x38>
  400873:	b8 00 00 00 00       	mov    $0x0,%eax
  400878:	48 85 c0             	test   %rax,%rax
  40087b:	74 0b                	je     400888 <register_tm_clones+0x38>
  40087d:	5d                   	pop    %rbp
  40087e:	bf 88 10 60 00       	mov    $0x601088,%edi
  400883:	ff e0                	jmpq   *%rax
  400885:	0f 1f 00             	nopl   (%rax)
  400888:	5d                   	pop    %rbp
  400889:	c3                   	retq   
  40088a:	66 0f 1f 44 00 00    	nopw   0x0(%rax,%rax,1)

0000000000400890 <__do_global_dtors_aux>:
  400890:	80 3d 31 08 20 00 00 	cmpb   $0x0,0x200831(%rip)        # 6010c8 <completed.7698>
  400897:	75 17                	jne    4008b0 <__do_global_dtors_aux+0x20>
  400899:	55                   	push   %rbp
  40089a:	48 89 e5             	mov    %rsp,%rbp
  40089d:	e8 7e ff ff ff       	callq  400820 <deregister_tm_clones>
  4008a2:	c6 05 1f 08 20 00 01 	movb   $0x1,0x20081f(%rip)        # 6010c8 <completed.7698>
  4008a9:	5d                   	pop    %rbp
  4008aa:	c3                   	retq   
  4008ab:	0f 1f 44 00 00       	nopl   0x0(%rax,%rax,1)
  4008b0:	f3 c3                	repz retq 
  4008b2:	0f 1f 40 00          	nopl   0x0(%rax)
  4008b6:	66 2e 0f 1f 84 00 00 	nopw   %cs:0x0(%rax,%rax,1)
  4008bd:	00 00 00 

00000000004008c0 <frame_dummy>:
  4008c0:	55                   	push   %rbp
  4008c1:	48 89 e5             	mov    %rsp,%rbp
  4008c4:	5d                   	pop    %rbp
  4008c5:	eb 89                	jmp    400850 <register_tm_clones>

00000000004008c7 <sigsegv_handler>:
  4008c7:	55                   	push   %rbp
  4008c8:	48 89 e5             	mov    %rsp,%rbp
  4008cb:	48 83 ec 10          	sub    $0x10,%rsp
  4008cf:	89 7d fc             	mov    %edi,-0x4(%rbp)
  4008d2:	48 8b 05 e7 07 20 00 	mov    0x2007e7(%rip),%rax        # 6010c0 <stderr@@GLIBC_2.2.5>
  4008d9:	48 8d 15 00 08 20 00 	lea    0x200800(%rip),%rdx        # 6010e0 <flag>
  4008e0:	48 8d 35 e1 01 00 00 	lea    0x1e1(%rip),%rsi        # 400ac8 <_IO_stdin_used+0x8>
  4008e7:	48 89 c7             	mov    %rax,%rdi
  4008ea:	b8 00 00 00 00       	mov    $0x0,%eax
  4008ef:	e8 8c fe ff ff       	callq  400780 <fprintf@plt>
  4008f4:	48 8b 05 c5 07 20 00 	mov    0x2007c5(%rip),%rax        # 6010c0 <stderr@@GLIBC_2.2.5>
  4008fb:	48 89 c7             	mov    %rax,%rdi
  4008fe:	e8 9d fe ff ff       	callq  4007a0 <fflush@plt>
  400903:	bf 01 00 00 00       	mov    $0x1,%edi
  400908:	e8 c3 fe ff ff       	callq  4007d0 <exit@plt>

000000000040090d <main>:
  40090d:	55                   	push   %rbp
  40090e:	48 89 e5             	mov    %rsp,%rbp
  400911:	48 81 ec 90 00 00 00 	sub    $0x90,%rsp
  400918:	89 bd 7c ff ff ff    	mov    %edi,-0x84(%rbp)
  40091e:	48 89 b5 70 ff ff ff 	mov    %rsi,-0x90(%rbp)
  400925:	bf e8 03 00 00       	mov    $0x3e8,%edi
  40092a:	e8 61 fe ff ff       	callq  400790 <malloc@plt>
  40092f:	48 89 45 f8          	mov    %rax,-0x8(%rbp)
  400933:	48 8d 35 92 01 00 00 	lea    0x192(%rip),%rsi        # 400acc <_IO_stdin_used+0xc>
  40093a:	48 8d 3d 8d 01 00 00 	lea    0x18d(%rip),%rdi        # 400ace <_IO_stdin_used+0xe>
  400941:	e8 7a fe ff ff       	callq  4007c0 <fopen@plt>
  400946:	48 89 45 f0          	mov    %rax,-0x10(%rbp)
  40094a:	48 83 7d f0 00       	cmpq   $0x0,-0x10(%rbp)
  40094f:	75 16                	jne    400967 <main+0x5a>
  400951:	48 8d 3d 80 01 00 00 	lea    0x180(%rip),%rdi        # 400ad8 <_IO_stdin_used+0x18>
  400958:	e8 d3 fd ff ff       	callq  400730 <puts@plt>
  40095d:	bf 00 00 00 00       	mov    $0x0,%edi
  400962:	e8 69 fe ff ff       	callq  4007d0 <exit@plt>
  400967:	48 8b 45 f0          	mov    -0x10(%rbp),%rax
  40096b:	48 89 c2             	mov    %rax,%rdx
  40096e:	be 40 00 00 00       	mov    $0x40,%esi
  400973:	48 8d 3d 66 07 20 00 	lea    0x200766(%rip),%rdi        # 6010e0 <flag>
  40097a:	e8 e1 fd ff ff       	callq  400760 <fgets@plt>
  40097f:	48 8d 35 41 ff ff ff 	lea    -0xbf(%rip),%rsi        # 4008c7 <sigsegv_handler>
  400986:	bf 0b 00 00 00       	mov    $0xb,%edi
  40098b:	e8 e0 fd ff ff       	callq  400770 <signal@plt>
  400990:	b8 00 00 00 00       	mov    $0x0,%eax
  400995:	e8 16 fe ff ff       	callq  4007b0 <getegid@plt>
  40099a:	89 45 ec             	mov    %eax,-0x14(%rbp)
  40099d:	8b 55 ec             	mov    -0x14(%rbp),%edx
  4009a0:	8b 4d ec             	mov    -0x14(%rbp),%ecx
  4009a3:	8b 45 ec             	mov    -0x14(%rbp),%eax
  4009a6:	89 ce                	mov    %ecx,%esi
  4009a8:	89 c7                	mov    %eax,%edi
  4009aa:	b8 00 00 00 00       	mov    $0x0,%eax
  4009af:	e8 8c fd ff ff       	callq  400740 <setresgid@plt>
  4009b4:	48 8b 15 f5 06 20 00 	mov    0x2006f5(%rip),%rdx        # 6010b0 <stdin@@GLIBC_2.2.5>
  4009bb:	48 8b 45 f8          	mov    -0x8(%rbp),%rax
  4009bf:	be e8 03 00 00       	mov    $0x3e8,%esi
  4009c4:	48 89 c7             	mov    %rax,%rdi
  4009c7:	e8 94 fd ff ff       	callq  400760 <fgets@plt>
  4009cc:	48 8b 45 f8          	mov    -0x8(%rbp),%rax
  4009d0:	48 05 e7 03 00 00    	add    $0x3e7,%rax
  4009d6:	c6 00 00             	movb   $0x0,(%rax)
  4009d9:	48 8b 45 f8          	mov    -0x8(%rbp),%rax
  4009dd:	48 89 c7             	mov    %rax,%rdi
  4009e0:	b8 00 00 00 00       	mov    $0x0,%eax
  4009e5:	e8 66 fd ff ff       	callq  400750 <printf@plt>
  4009ea:	48 8b 05 af 06 20 00 	mov    0x2006af(%rip),%rax        # 6010a0 <stdout@@GLIBC_2.2.5>
  4009f1:	48 89 c7             	mov    %rax,%rdi
  4009f4:	e8 a7 fd ff ff       	callq  4007a0 <fflush@plt>
  4009f9:	48 8b 15 b0 06 20 00 	mov    0x2006b0(%rip),%rdx        # 6010b0 <stdin@@GLIBC_2.2.5>
  400a00:	48 8b 45 f8          	mov    -0x8(%rbp),%rax
  400a04:	be e8 03 00 00       	mov    $0x3e8,%esi
  400a09:	48 89 c7             	mov    %rax,%rdi
  400a0c:	e8 4f fd ff ff       	callq  400760 <fgets@plt>
  400a11:	48 8b 45 f8          	mov    -0x8(%rbp),%rax
  400a15:	48 05 e7 03 00 00    	add    $0x3e7,%rax
  400a1b:	c6 00 00             	movb   $0x0,(%rax)
  400a1e:	48 8b 55 f8          	mov    -0x8(%rbp),%rdx
  400a22:	48 8d 45 80          	lea    -0x80(%rbp),%rax
  400a26:	48 89 d6             	mov    %rdx,%rsi
  400a29:	48 89 c7             	mov    %rax,%rdi
  400a2c:	e8 ef fc ff ff       	callq  400720 <strcpy@plt>
  400a31:	b8 00 00 00 00       	mov    $0x0,%eax
  400a36:	c9                   	leaveq 
  400a37:	c3                   	retq   
  400a38:	0f 1f 84 00 00 00 00 	nopl   0x0(%rax,%rax,1)
  400a3f:	00 

0000000000400a40 <__libc_csu_init>:
  400a40:	41 57                	push   %r15
  400a42:	41 56                	push   %r14
  400a44:	49 89 d7             	mov    %rdx,%r15
  400a47:	41 55                	push   %r13
  400a49:	41 54                	push   %r12
  400a4b:	4c 8d 25 be 03 20 00 	lea    0x2003be(%rip),%r12        # 600e10 <__frame_dummy_init_array_entry>
  400a52:	55                   	push   %rbp
  400a53:	48 8d 2d be 03 20 00 	lea    0x2003be(%rip),%rbp        # 600e18 <__init_array_end>
  400a5a:	53                   	push   %rbx
  400a5b:	41 89 fd             	mov    %edi,%r13d
  400a5e:	49 89 f6             	mov    %rsi,%r14
  400a61:	4c 29 e5             	sub    %r12,%rbp
  400a64:	48 83 ec 08          	sub    $0x8,%rsp
  400a68:	48 c1 fd 03          	sar    $0x3,%rbp
  400a6c:	e8 7f fc ff ff       	callq  4006f0 <_init>
  400a71:	48 85 ed             	test   %rbp,%rbp
  400a74:	74 20                	je     400a96 <__libc_csu_init+0x56>
  400a76:	31 db                	xor    %ebx,%ebx
  400a78:	0f 1f 84 00 00 00 00 	nopl   0x0(%rax,%rax,1)
  400a7f:	00 
  400a80:	4c 89 fa             	mov    %r15,%rdx
  400a83:	4c 89 f6             	mov    %r14,%rsi
  400a86:	44 89 ef             	mov    %r13d,%edi
  400a89:	41 ff 14 dc          	callq  *(%r12,%rbx,8)
  400a8d:	48 83 c3 01          	add    $0x1,%rbx
  400a91:	48 39 dd             	cmp    %rbx,%rbp
  400a94:	75 ea                	jne    400a80 <__libc_csu_init+0x40>
  400a96:	48 83 c4 08          	add    $0x8,%rsp
  400a9a:	5b                   	pop    %rbx
  400a9b:	5d                   	pop    %rbp
  400a9c:	41 5c                	pop    %r12
  400a9e:	41 5d                	pop    %r13
  400aa0:	41 5e                	pop    %r14
  400aa2:	41 5f                	pop    %r15
  400aa4:	c3                   	retq   
  400aa5:	90                   	nop
  400aa6:	66 2e 0f 1f 84 00 00 	nopw   %cs:0x0(%rax,%rax,1)
  400aad:	00 00 00 

0000000000400ab0 <__libc_csu_fini>:
  400ab0:	f3 c3                	repz retq 

Disassembly of section .fini:

0000000000400ab4 <_fini>:
  400ab4:	48 83 ec 08          	sub    $0x8,%rsp
  400ab8:	48 83 c4 08          	add    $0x8,%rsp
  400abc:	c3                   	retq   
